; ModuleID = '60/99.c'
source_filename = "60/99.c"
target datalayout = "e-m:e-p270:32:32-p271:32:32-p272:64:64-i64:64-f80:128-n8:16:32:64-S128"
target triple = "x86_64-pc-linux-gnu"

@.str = private unnamed_addr constant [3 x i8] c"%d\00", align 1
@.str.1 = private unnamed_addr constant [6 x i8] c"empty\00", align 1
@.str.2 = private unnamed_addr constant [7 x i8] c"%d %d\0A\00", align 1

; Function Attrs: noinline nounwind uwtable
define dso_local i32 @main() #0 {
  %1 = alloca i32, align 4
  %2 = alloca i32, align 4
  %3 = alloca i32, align 4
  %4 = alloca i32, align 4
  %5 = alloca i32, align 4
  %6 = alloca i32, align 4
  store i32 0, i32* %1, align 4
  store i32 0, i32* %6, align 4
  %7 = call i32 (i8*, ...) @__isoc99_scanf(i8* getelementptr inbounds ([3 x i8], [3 x i8]* @.str, i64 0, i64 0), i32* %2)
  %8 = load i32, i32* %2, align 4
  %9 = icmp sle i32 %8, 4
  br i1 %9, label %10, label %12

10:                                               ; preds = %0
  %11 = call i32 (i8*, ...) @printf(i8* getelementptr inbounds ([6 x i8], [6 x i8]* @.str.1, i64 0, i64 0))
  br label %12

12:                                               ; preds = %10, %0
  store i32 3, i32* %3, align 4
  br label %13

13:                                               ; preds = %75, %12
  %14 = load i32, i32* %3, align 4
  %15 = load i32, i32* %2, align 4
  %16 = sub nsw i32 %15, 2
  %17 = icmp sle i32 %14, %16
  br i1 %17, label %18, label %78

18:                                               ; preds = %13
  store i32 2, i32* %4, align 4
  store i32 2, i32* %5, align 4
  br label %19

19:                                               ; preds = %47, %18
  %20 = load i32, i32* %4, align 4
  %21 = sitofp i32 %20 to double
  %22 = load i32, i32* %3, align 4
  %23 = sitofp i32 %22 to double
  %24 = call double @sqrt(double %23) #3
  %25 = fcmp ole double %21, %24
  %26 = zext i1 %25 to i32
  %27 = load i32, i32* %5, align 4
  %28 = sitofp i32 %27 to double
  %29 = load i32, i32* %3, align 4
  %30 = add nsw i32 %29, 2
  %31 = sitofp i32 %30 to double
  %32 = call double @sqrt(double %31) #3
  %33 = fcmp ole double %28, %32
  br i1 %33, label %34, label %52

34:                                               ; preds = %19
  %35 = load i32, i32* %3, align 4
  %36 = load i32, i32* %4, align 4
  %37 = srem i32 %35, %36
  %38 = icmp eq i32 %37, 0
  br i1 %38, label %45, label %39

39:                                               ; preds = %34
  %40 = load i32, i32* %3, align 4
  %41 = add nsw i32 %40, 2
  %42 = load i32, i32* %5, align 4
  %43 = srem i32 %41, %42
  %44 = icmp eq i32 %43, 0
  br i1 %44, label %45, label %46

45:                                               ; preds = %39, %34
  br label %52

46:                                               ; preds = %39
  br label %47

47:                                               ; preds = %46
  %48 = load i32, i32* %4, align 4
  %49 = add nsw i32 %48, 1
  store i32 %49, i32* %4, align 4
  %50 = load i32, i32* %5, align 4
  %51 = add nsw i32 %50, 1
  store i32 %51, i32* %5, align 4
  br label %19

52:                                               ; preds = %45, %19
  %53 = load i32, i32* %4, align 4
  %54 = sitofp i32 %53 to double
  %55 = load i32, i32* %3, align 4
  %56 = sitofp i32 %55 to double
  %57 = call double @sqrt(double %56) #3
  %58 = fcmp ogt double %54, %57
  br i1 %58, label %59, label %74

59:                                               ; preds = %52
  %60 = load i32, i32* %5, align 4
  %61 = sitofp i32 %60 to double
  %62 = load i32, i32* %3, align 4
  %63 = add nsw i32 %62, 2
  %64 = sitofp i32 %63 to double
  %65 = call double @sqrt(double %64) #3
  %66 = fcmp ogt double %61, %65
  br i1 %66, label %67, label %74

67:                                               ; preds = %59
  %68 = load i32, i32* %3, align 4
  %69 = load i32, i32* %3, align 4
  %70 = add nsw i32 %69, 2
  %71 = call i32 (i8*, ...) @printf(i8* getelementptr inbounds ([7 x i8], [7 x i8]* @.str.2, i64 0, i64 0), i32 %68, i32 %70)
  %72 = load i32, i32* %6, align 4
  %73 = add nsw i32 %72, 1
  store i32 %73, i32* %6, align 4
  br label %74

74:                                               ; preds = %67, %59, %52
  br label %75

75:                                               ; preds = %74
  %76 = load i32, i32* %3, align 4
  %77 = add nsw i32 %76, 1
  store i32 %77, i32* %3, align 4
  br label %13

78:                                               ; preds = %13
  store i32 0, i32* %6, align 4
  br i1 false, label %79, label %81

79:                                               ; preds = %78
  %80 = call i32 (i8*, ...) @printf(i8* getelementptr inbounds ([6 x i8], [6 x i8]* @.str.1, i64 0, i64 0))
  br label %81

81:                                               ; preds = %79, %78
  %82 = load i32, i32* %1, align 4
  ret i32 %82
}

declare dso_local i32 @__isoc99_scanf(i8*, ...) #1

declare dso_local i32 @printf(i8*, ...) #1

; Function Attrs: nounwind
declare dso_local double @sqrt(double) #2


!llvm.module.flags = !{!0}
!llvm.ident = !{!1}

!0 = !{i32 1, !"wchar_size", i32 4}
!1 = !{!"clang version 10.0.0-4ubuntu1 "}
